target datalayout = "e-m:e-p270:32:32-p271:32:32-p272:64:64-i64:64-i128:128-f80:128-n8:16:32:64-S128"
target triple = "x86_64-pc-linux-gnu"

%struct.emap_alloc_ctx_t = type { i32, i8 }

@je_sz_size2index_tab = external global [0 x i8], align 1

; Function Attrs: inlinehint nounwind uwtable
define internal i32 @fls_lu(i64 noundef %0) #5 {
  %2 = alloca i64, align 8
  store i64 %0, ptr %2, align 8, !tbaa !11
  %3 = load i64, ptr %2, align 8, !tbaa !11
  %4 = icmp ne i64 %3, 0
  call void @util_assume(i1 noundef zeroext %4)
  %5 = load i64, ptr %2, align 8, !tbaa !11
  %6 = call i64 @llvm.ctlz.i64(i64 %5, i1 true)
  %7 = trunc i64 %6 to i32
  %8 = sext i32 %7 to i64
  %9 = xor i64 63, %8
  %10 = trunc i64 %9 to i32
  ret i32 %10
}

; Function Attrs: inlinehint nounwind uwtable
define internal i32 @fls_u64(i64 noundef %0) #5 {
  %2 = alloca i64, align 8
  store i64 %0, ptr %2, align 8, !tbaa !11
  %3 = load i64, ptr %2, align 8, !tbaa !11
  %4 = call i32 @fls_lu(i64 noundef %3)
  ret i32 %4
}

; Function Attrs: alwaysinline nounwind uwtable
define internal void @util_assume(i1 noundef zeroext %0) #2 {
  %2 = alloca i8, align 1
  %3 = zext i1 %0 to i8
  store i8 %3, ptr %2, align 1, !tbaa !13
  %4 = load i8, ptr %2, align 1, !tbaa !13, !range !15, !noundef !16
  %5 = trunc i8 %4 to i1
  br i1 %5, label %7, label %6

6:                                                ; preds = %1
  unreachable

7:                                                ; preds = %1
  ret void
}

; Function Attrs: inlinehint nounwind uwtable
define internal i32 @lg_floor(i64 noundef %0) #5 {
  %2 = alloca i64, align 8
  store i64 %0, ptr %2, align 8, !tbaa !11
  %3 = load i64, ptr %2, align 8, !tbaa !11
  %4 = icmp ne i64 %3, 0
  call void @util_assume(i1 noundef zeroext %4)
  %5 = load i64, ptr %2, align 8, !tbaa !11
  %6 = call i32 @fls_u64(i64 noundef %5)
  ret i32 %6
}

; Function Attrs: alwaysinline nounwind uwtable
define internal i32 @sz_size2index_lookup_impl(i64 noundef %0) #2 {
  %2 = alloca i64, align 8
  store i64 %0, ptr %2, align 8, !tbaa !11
  br label %3

3:                                                ; preds = %1
  br label %4

4:                                                ; preds = %3
  %5 = load i64, ptr %2, align 8, !tbaa !11
  %6 = add i64 %5, 8
  %7 = sub i64 %6, 1
  %8 = lshr i64 %7, 3
  %9 = getelementptr inbounds nuw [0 x i8], ptr @je_sz_size2index_tab, i64 0, i64 %8
  %10 = load i8, ptr %9, align 1, !tbaa !26
  %11 = zext i8 %10 to i32
  ret i32 %11
}

; Function Attrs: inlinehint nounwind uwtable
define internal i32 @sz_size2index_compute(i64 noundef %0) #5 {
  %2 = alloca i32, align 4
  %3 = alloca i64, align 8
  %4 = alloca i32, align 4
  %5 = alloca i32, align 4
  %6 = alloca i32, align 4
  %7 = alloca i32, align 4
  %8 = alloca i64, align 8
  %9 = alloca i32, align 4
  %10 = alloca i32, align 4
  store i64 %0, ptr %3, align 8, !tbaa !11
  %11 = load i64, ptr %3, align 8, !tbaa !11
  %12 = icmp ugt i64 %11, 8070450532247928832
  %13 = xor i1 %12, true
  %14 = xor i1 %13, true
  %15 = zext i1 %14 to i32
  %16 = sext i32 %15 to i64
  %17 = call i64 @llvm.expect.i64(i64 %16, i64 0)
  %18 = icmp ne i64 %17, 0
  br i1 %18, label %19, label %20

19:                                               ; preds = %1
  store i32 235, ptr %2, align 4
  br label %65

20:                                               ; preds = %1
  %21 = load i64, ptr %3, align 8, !tbaa !11
  %22 = icmp eq i64 %21, 0
  br i1 %22, label %23, label %24

23:                                               ; preds = %20
  store i32 0, ptr %2, align 4
  br label %65

24:                                               ; preds = %20
  call void @llvm.lifetime.start.p0(i64 4, ptr %4) #10
  %25 = load i64, ptr %3, align 8, !tbaa !11
  %26 = shl i64 %25, 1
  %27 = sub i64 %26, 1
  %28 = call i32 @lg_floor(i64 noundef %27)
  store i32 %28, ptr %4, align 4, !tbaa !21
  call void @llvm.lifetime.start.p0(i64 4, ptr %5) #10
  %29 = load i32, ptr %4, align 4, !tbaa !21
  %30 = icmp ult i32 %29, 5
  br i1 %30, label %31, label %32

31:                                               ; preds = %24
  br label %35

32:                                               ; preds = %24
  %33 = load i32, ptr %4, align 4, !tbaa !21
  %34 = sub i32 %33, 5
  br label %35

35:                                               ; preds = %32, %31
  %36 = phi i32 [ 0, %31 ], [ %34, %32 ]
  store i32 %36, ptr %5, align 4, !tbaa !21
  call void @llvm.lifetime.start.p0(i64 4, ptr %6) #10
  %37 = load i32, ptr %5, align 4, !tbaa !21
  %38 = shl i32 %37, 2
  store i32 %38, ptr %6, align 4, !tbaa !21
  call void @llvm.lifetime.start.p0(i64 4, ptr %7) #10
  %39 = load i32, ptr %4, align 4, !tbaa !21
  %40 = icmp ult i32 %39, 6
  br i1 %40, label %41, label %42

41:                                               ; preds = %35
  br label %46

42:                                               ; preds = %35
  %43 = load i32, ptr %4, align 4, !tbaa !21
  %44 = sub i32 %43, 2
  %45 = sub i32 %44, 1
  br label %46

46:                                               ; preds = %42, %41
  %47 = phi i32 [ 3, %41 ], [ %45, %42 ]
  store i32 %47, ptr %7, align 4, !tbaa !21
  call void @llvm.lifetime.start.p0(i64 8, ptr %8) #10
  %48 = load i32, ptr %7, align 4, !tbaa !21
  %49 = zext i32 %48 to i64
  %50 = shl i64 -1, %49
  store i64 %50, ptr %8, align 8, !tbaa !11
  call void @llvm.lifetime.start.p0(i64 4, ptr %9) #10
  %51 = load i64, ptr %3, align 8, !tbaa !11
  %52 = sub i64 %51, 1
  %53 = load i64, ptr %8, align 8, !tbaa !11
  %54 = and i64 %52, %53
  %55 = load i32, ptr %7, align 4, !tbaa !21
  %56 = zext i32 %55 to i64
  %57 = lshr i64 %54, %56
  %58 = and i64 %57, 3
  %59 = trunc i64 %58 to i32
  store i32 %59, ptr %9, align 4, !tbaa !21
  call void @llvm.lifetime.start.p0(i64 4, ptr %10) #10
  %60 = load i32, ptr %6, align 4, !tbaa !21
  %61 = add i32 0, %60
  %62 = load i32, ptr %9, align 4, !tbaa !21
  %63 = add i32 %61, %62
  store i32 %63, ptr %10, align 4, !tbaa !21
  %64 = load i32, ptr %10, align 4, !tbaa !21
  store i32 %64, ptr %2, align 4
  call void @llvm.lifetime.end.p0(i64 4, ptr %10) #10
  call void @llvm.lifetime.end.p0(i64 4, ptr %9) #10
  call void @llvm.lifetime.end.p0(i64 8, ptr %8) #10
  call void @llvm.lifetime.end.p0(i64 4, ptr %7) #10
  call void @llvm.lifetime.end.p0(i64 4, ptr %6) #10
  call void @llvm.lifetime.end.p0(i64 4, ptr %5) #10
  call void @llvm.lifetime.end.p0(i64 4, ptr %4) #10
  br label %65

65:                                               ; preds = %46, %23, %19
  %66 = load i32, ptr %2, align 4
  ret i32 %66
}

; Function Attrs: alwaysinline nounwind uwtable
define internal i32 @sz_size2index_lookup(i64 noundef %0) #2 {
  %2 = alloca i64, align 8
  %3 = alloca i32, align 4
  store i64 %0, ptr %2, align 8, !tbaa !11
  call void @llvm.lifetime.start.p0(i64 4, ptr %3) #10
  %4 = load i64, ptr %2, align 8, !tbaa !11
  %5 = call i32 @sz_size2index_lookup_impl(i64 noundef %4)
  store i32 %5, ptr %3, align 4, !tbaa !21
  br label %6

6:                                                ; preds = %1
  br label %7

7:                                                ; preds = %6
  br label %8

8:                                                ; preds = %7
  %9 = load i32, ptr %3, align 4, !tbaa !21
  call void @llvm.lifetime.end.p0(i64 4, ptr %3) #10
  ret i32 %9
}

; Function Attrs: alwaysinline nounwind uwtable
define internal i32 @sz_size2index(i64 noundef %0) #2 {
  %2 = alloca i32, align 4
  %3 = alloca i64, align 8
  store i64 %0, ptr %3, align 8, !tbaa !11
  %4 = load i64, ptr %3, align 8, !tbaa !11
  %5 = icmp ule i64 %4, 4096
  %6 = xor i1 %5, true
  %7 = xor i1 %6, true
  %8 = zext i1 %7 to i32
  %9 = sext i32 %8 to i64
  %10 = call i64 @llvm.expect.i64(i64 %9, i64 1)
  %11 = icmp ne i64 %10, 0
  br i1 %11, label %12, label %15

12:                                               ; preds = %1
  %13 = load i64, ptr %3, align 8, !tbaa !11
  %14 = call i32 @sz_size2index_lookup(i64 noundef %13)
  store i32 %14, ptr %2, align 4
  br label %18

15:                                               ; preds = %1
  %16 = load i64, ptr %3, align 8, !tbaa !11
  %17 = call i32 @sz_size2index_compute(i64 noundef %16)
  store i32 %17, ptr %2, align 4
  br label %18

18:                                               ; preds = %15, %12
  %19 = load i32, ptr %2, align 4
  ret i32 %19
}

; Function Attrs: inlinehint nounwind uwtable
define internal void @arena_sdalloc_no_tcache(ptr noundef %0, ptr noundef %1, i64 noundef %2) #5 {
  %4 = alloca ptr, align 8
  %5 = alloca ptr, align 8
  %6 = alloca i64, align 8
  %7 = alloca %struct.emap_alloc_ctx_t, align 4
  store ptr %0, ptr %4, align 8, !tbaa !4
  store ptr %1, ptr %5, align 8, !tbaa !25
  store i64 %2, ptr %6, align 8, !tbaa !11
  br label %8

8:                                                ; preds = %3
  br label %9

9:                                                ; preds = %8
  br label %10

10:                                               ; preds = %9
  br label %11

11:                                               ; preds = %10
  call void @llvm.lifetime.start.p0(i64 8, ptr %7) #10
  %12 = load i64, ptr %6, align 8, !tbaa !11
  %13 = call i32 @sz_size2index(i64 noundef %12)
  %14 = getelementptr inbounds nuw %struct.emap_alloc_ctx_t, ptr %7, i32 0, i32 0
  store i32 %13, ptr %14, align 4, !tbaa !144
  %15 = getelementptr inbounds nuw %struct.emap_alloc_ctx_t, ptr %7, i32 0, i32 0
  %16 = load i32, ptr %15, align 4, !tbaa !144
  %17 = zext i32 %16 to i64
  %18 = icmp ult i64 %17, 39
  %19 = getelementptr inbounds nuw %struct.emap_alloc_ctx_t, ptr %7, i32 0, i32 1
  %20 = zext i1 %18 to i8
  store i8 %20, ptr %19, align 4, !tbaa !146
  %21 = getelementptr inbounds nuw %struct.emap_alloc_ctx_t, ptr %7, i32 0, i32 1
  %22 = load i8, ptr %21, align 4, !tbaa !146, !range !15, !noundef !16
  %23 = trunc i8 %22 to i1
  %24 = xor i1 %23, true
  %25 = xor i1 %24, true
  %26 = zext i1 %25 to i32
  %27 = sext i32 %26 to i64
  %28 = call i64 @llvm.expect.i64(i64 %27, i64 1)
  %29 = icmp ne i64 %28, 0
  br i1 %29, label %30, label %33

30:                                               ; preds = %11
  %31 = load ptr, ptr %4, align 8, !tbaa !4
  %32 = load ptr, ptr %5, align 8, !tbaa !25
  call void @je_arena_dalloc_small(ptr noundef %31, ptr noundef %32)
  br label %38

33:                                               ; preds = %11
  %34 = load ptr, ptr %4, align 8, !tbaa !4
  %35 = load ptr, ptr %5, align 8, !tbaa !25
  %36 = getelementptr inbounds nuw %struct.emap_alloc_ctx_t, ptr %7, i32 0, i32 0
  %37 = load i32, ptr %36, align 4, !tbaa !144
  call void @arena_dalloc_large_no_tcache(ptr noundef %34, ptr noundef %35, i32 noundef %37)
  br label %38

38:                                               ; preds = %33, %30
  call void @llvm.lifetime.end.p0(i64 8, ptr %7) #10
  ret void
}